target datalayout = "e-m:e-p270:32:32-p271:32:32-p272:64:64-i64:64-i128:128-f80:128-n8:16:32:64-S128"
target triple = "x86_64-pc-linux-gnu"

%struct.AVFilterContext = type { ptr, ptr, ptr, ptr, ptr, i32, ptr, ptr, i32, ptr, ptr, i32, i32, ptr, ptr, ptr, ptr, i32, ptr, i32, i32 }
%struct.DrawGraphContext = type { ptr, [4 x ptr], float, float, [4 x ptr], [4 x ptr], [4 x i8], i32, i32, i32, i32, %struct.AVRational, ptr, i32, [4 x i32], [4 x i32], [4 x ptr], [4 x i32], i32, i64 }
%struct.AVRational = type { i32, i32 }
%struct.AVFilterFormatsConfig = type { ptr, ptr, ptr, ptr, ptr }
%struct.AVFilterLink = type { ptr, ptr, ptr, ptr, i32, i32, i32, i32, %struct.AVRational, i32, i32, i32, %struct.AVChannelLayout, %struct.AVRational, ptr, i32, %struct.AVFilterFormatsConfig, %struct.AVFilterFormatsConfig }
%struct.AVChannelLayout = type { i32, i32, %union.anon.1, ptr }
%union.anon.1 = type { i64 }
%struct.FilterLink = type { %struct.AVFilterLink, ptr, i64, i64, i32, i32, i64, i64, i64, i64, %struct.AVRational, ptr }

; Function Attrs: alwaysinline nounwind uwtable
define internal i64 @av_inv_q(i64 %0) #9 {
  %2 = alloca %struct.AVRational, align 4
  %3 = alloca %struct.AVRational, align 4
  store i64 %0, ptr %3, align 4
  %4 = getelementptr inbounds nuw %struct.AVRational, ptr %2, i32 0, i32 0
  %5 = getelementptr inbounds nuw %struct.AVRational, ptr %3, i32 0, i32 1
  %6 = load i32, ptr %5, align 4, !tbaa !107
  store i32 %6, ptr %4, align 4, !tbaa !106
  %7 = getelementptr inbounds nuw %struct.AVRational, ptr %2, i32 0, i32 1
  %8 = getelementptr inbounds nuw %struct.AVRational, ptr %3, i32 0, i32 0
  %9 = load i32, ptr %8, align 4, !tbaa !106
  store i32 %9, ptr %7, align 4, !tbaa !107
  %10 = load i64, ptr %2, align 4
  ret i64 %10
}

; Function Attrs: inlinehint nounwind uwtable
define internal ptr @ff_filter_link(ptr noundef %0) #6 {
  %2 = alloca ptr, align 8
  store ptr %0, ptr %2, align 8, !tbaa !47
  %3 = load ptr, ptr %2, align 8, !tbaa !47
  ret ptr %3
}

; Function Attrs: nounwind uwtable
define internal i32 @config_output(ptr noundef %0) #1 {
  %2 = alloca ptr, align 8
  %3 = alloca ptr, align 8
  %4 = alloca ptr, align 8
  %5 = alloca %struct.AVRational, align 4
  %6 = alloca %struct.AVRational, align 4
  store ptr %0, ptr %2, align 8, !tbaa !47
  call void @llvm.lifetime.start.p0(i64 8, ptr %3) #10
  %7 = load ptr, ptr %2, align 8, !tbaa !47
  %8 = call ptr @ff_filter_link(ptr noundef %7)
  store ptr %8, ptr %3, align 8, !tbaa !103
  call void @llvm.lifetime.start.p0(i64 8, ptr %4) #10
  %9 = load ptr, ptr %2, align 8, !tbaa !47
  %10 = getelementptr inbounds nuw %struct.AVFilterLink, ptr %9, i32 0, i32 0
  %11 = load ptr, ptr %10, align 8, !tbaa !95
  %12 = getelementptr inbounds nuw %struct.AVFilterContext, ptr %11, i32 0, i32 9
  %13 = load ptr, ptr %12, align 8, !tbaa !9
  store ptr %13, ptr %4, align 8, !tbaa !22
  %14 = load ptr, ptr %4, align 8, !tbaa !22
  %15 = getelementptr inbounds nuw %struct.DrawGraphContext, ptr %14, i32 0, i32 9
  %16 = load i32, ptr %15, align 4, !tbaa !97
  %17 = load ptr, ptr %2, align 8, !tbaa !47
  %18 = getelementptr inbounds nuw %struct.AVFilterLink, ptr %17, i32 0, i32 6
  store i32 %16, ptr %18, align 8, !tbaa !64
  %19 = load ptr, ptr %4, align 8, !tbaa !22
  %20 = getelementptr inbounds nuw %struct.DrawGraphContext, ptr %19, i32 0, i32 10
  %21 = load i32, ptr %20, align 8, !tbaa !105
  %22 = load ptr, ptr %2, align 8, !tbaa !47
  %23 = getelementptr inbounds nuw %struct.AVFilterLink, ptr %22, i32 0, i32 7
  store i32 %21, ptr %23, align 4, !tbaa !66
  %24 = load ptr, ptr %2, align 8, !tbaa !47
  %25 = getelementptr inbounds nuw %struct.AVFilterLink, ptr %24, i32 0, i32 8
  %26 = getelementptr inbounds nuw %struct.AVRational, ptr %5, i32 0, i32 0
  store i32 1, ptr %26, align 4, !tbaa !106
  %27 = getelementptr inbounds nuw %struct.AVRational, ptr %5, i32 0, i32 1
  store i32 1, ptr %27, align 4, !tbaa !107
  call void @llvm.memcpy.p0.p0.i64(ptr align 8 %25, ptr align 4 %5, i64 8, i1 false), !tbaa.struct !108
  %28 = load ptr, ptr %3, align 8, !tbaa !103
  %29 = getelementptr inbounds nuw %struct.FilterLink, ptr %28, i32 0, i32 10
  %30 = load ptr, ptr %4, align 8, !tbaa !22
  %31 = getelementptr inbounds nuw %struct.DrawGraphContext, ptr %30, i32 0, i32 11
  call void @llvm.memcpy.p0.p0.i64(ptr align 8 %29, ptr align 4 %31, i64 8, i1 false), !tbaa.struct !108
  %32 = load ptr, ptr %2, align 8, !tbaa !47
  %33 = getelementptr inbounds nuw %struct.AVFilterLink, ptr %32, i32 0, i32 13
  call void @llvm.lifetime.start.p0(i64 8, ptr %6) #10
  %34 = load ptr, ptr %3, align 8, !tbaa !103
  %35 = getelementptr inbounds nuw %struct.FilterLink, ptr %34, i32 0, i32 10
  %36 = load i64, ptr %35, align 8
  %37 = call i64 @av_inv_q(i64 %36)
  store i64 %37, ptr %6, align 4
  call void @llvm.memcpy.p0.p0.i64(ptr align 8 %33, ptr align 4 %6, i64 8, i1 false), !tbaa.struct !108
  call void @llvm.lifetime.end.p0(i64 8, ptr %6) #10
  %38 = load ptr, ptr %4, align 8, !tbaa !22
  %39 = getelementptr inbounds nuw %struct.DrawGraphContext, ptr %38, i32 0, i32 19
  store i64 -9223372036854775808, ptr %39, align 8, !tbaa !92
  call void @llvm.lifetime.end.p0(i64 8, ptr %4) #10
  call void @llvm.lifetime.end.p0(i64 8, ptr %3) #10
  ret i32 0
}