; Function Attrs: mustprogress nofree norecurse nosync nounwind willreturn memory(readwrite, inaccessiblemem: none) uwtable
define internal noundef i32 @config_output(ptr noundef captures(none) initializes((40, 56), (96, 104), (264, 272)) %0) #6 {
  %2 = load ptr, ptr %0, align 8, !tbaa !86
  %3 = getelementptr inbounds nuw i8, ptr %2, i64 72
  %4 = load ptr, ptr %3, align 8, !tbaa !4
  %5 = getelementptr inbounds nuw i8, ptr %4, i64 124
  %6 = load i32, ptr %5, align 4, !tbaa !88
  %7 = getelementptr inbounds nuw i8, ptr %0, i64 40
  store i32 %6, ptr %7, align 8, !tbaa !58
  %8 = getelementptr inbounds nuw i8, ptr %4, i64 128
  %9 = load i32, ptr %8, align 8, !tbaa !94
  %10 = getelementptr inbounds nuw i8, ptr %0, i64 44
  store i32 %9, ptr %10, align 4, !tbaa !60
  %11 = getelementptr inbounds nuw i8, ptr %0, i64 48
  store i32 1, ptr %11, align 8, !tbaa !30
  %.sroa.2.0..sroa_idx = getelementptr inbounds nuw i8, ptr %0, i64 52
  store i32 1, ptr %.sroa.2.0..sroa_idx, align 4, !tbaa !30
  %12 = getelementptr inbounds nuw i8, ptr %0, i64 264
  %13 = getelementptr inbounds nuw i8, ptr %4, i64 132
  %14 = load i64, ptr %13, align 4
  store i64 %14, ptr %12, align 8
  %15 = getelementptr inbounds nuw i8, ptr %0, i64 96
  %.sroa.01.0.insert.insert.i = tail call i64 @llvm.fshl.i64(i64 %14, i64 %14, i64 32)
  store i64 %.sroa.01.0.insert.insert.i, ptr %15, align 8
  %16 = getelementptr inbounds nuw i8, ptr %4, i64 248
  store i64 -9223372036854775808, ptr %16, align 8, !tbaa !85
  ret i32 0
}